; Function Attrs: nounwind uwtable
define i32 @cli_bcapi_buffer_pipe_write_avail(ptr nocapture noundef readonly %0, i32 noundef %1) local_unnamed_addr #1 {
  %3 = getelementptr inbounds i8, ptr %0, i64 1224
  %4 = load ptr, ptr %3, align 8
  %5 = icmp eq ptr %4, null
  %6 = icmp slt i32 %1, 0
  %or.cond.i = or i1 %6, %5
  br i1 %or.cond.i, label %get_buffer.exit.thread, label %7

7:                                                ; preds = %2
  %8 = getelementptr inbounds i8, ptr %0, i64 1232
  %9 = load i32, ptr %8, align 8
  %.not.i = icmp ugt i32 %9, %1
  br i1 %.not.i, label %get_buffer.exit, label %get_buffer.exit.thread

get_buffer.exit.thread:                           ; preds = %2, %7
  tail call void (ptr, ...) @cli_dbgmsg(ptr noundef nonnull @.str.135, i32 noundef %1) #29
  br label %18

get_buffer.exit:                                  ; preds = %7
  %10 = zext nneg i32 %1 to i64
  %11 = getelementptr inbounds %struct.bc_buffer, ptr %4, i64 %10
  %12 = load ptr, ptr %11, align 8
  %.not11 = icmp eq ptr %12, null
  br i1 %.not11, label %18, label %13

13:                                               ; preds = %get_buffer.exit
  %14 = getelementptr inbounds i8, ptr %11, i64 12
  %15 = load i32, ptr %14, align 4
  %16 = getelementptr inbounds i8, ptr %11, i64 8
  %17 = load i32, ptr %16, align 8
  %spec.select = tail call i32 @llvm.usub.sat.i32(i32 %17, i32 %15)
  br label %18

18:                                               ; preds = %get_buffer.exit.thread, %13, %get_buffer.exit
  %.0 = phi i32 [ 0, %get_buffer.exit ], [ %spec.select, %13 ], [ 0, %get_buffer.exit.thread ]
  ret i32 %.0
}